Certificate:
    Data:
        Version: 3 (0x2)
        Serial Number: 1 (0x1)
    Signature Algorithm: sha1WithRSAEncryption
        Issuer: C=PT, O=Ca-G9, OU=Ca-G9, CN=Ca-G9
        Validity
            Not Before: Dec 12 22:50:59 2018 GMT
            Not After : Dec 31 23:59:59 2030 GMT
        Subject: C=PT, O=Ca-G9, OU=Ca-G9, CN=Ca-G9
        Subject Public Key Info:
            Public Key Algorithm: rsaEncryption
                Public-Key: (2048 bit)
                Modulus:
                    00:a1:98:ab:f2:3d:b7:41:4d:5b:4f:92:af:4b:3d:
                    8c:eb:98:9c:f7:83:d8:2f:0b:ec:0f:cf:6d:50:45:
                    a0:4a:af:8e:f1:0a:40:59:35:ca:fd:70:17:0f:ed:
                    fb:08:72:af:be:5a:61:d5:66:ec:02:11:45:30:d0:
                    c4:2a:11:83:4b:16:4f:fb:09:11:05:f4:65:08:e7:
                    d9:09:7e:e5:f6:7b:78:7b:2d:91:e2:72:57:40:6c:
                    40:29:9d:38:f8:c6:36:52:b9:2f:54:6f:2e:2a:8f:
                    18:40:69:36:d3:8c:94:36:d2:45:49:ea:c6:c6:6f:
                    4b:88:78:54:12:af:b6:fe:51:53:7f:da:c2:37:18:
                    41:1d:27:b3:59:6f:98:a9:b1:89:64:f7:c9:58:9b:
                    00:35:29:7d:6e:aa:76:44:08:33:98:c4:50:b2:a5:
                    e1:c4:8d:8b:52:83:e6:65:d5:35:00:a5:e4:01:6f:
                    55:d7:e3:75:99:ef:19:3c:66:35:36:e1:6f:d9:69:
                    25:6c:55:00:0f:67:a5:f2:eb:04:a1:33:ee:a7:f2:
                    b3:cd:26:e4:19:05:57:e5:fc:78:6f:cc:c7:cc:13:
                    02:9a:b2:57:2a:7f:bd:99:82:dc:fe:90:62:94:52:
                    d1:fb:27:23:a2:72:c3:2f:d4:e2:c0:90:46:f8:16:
                    72:fb
                Exponent: 65537 (0x10001)
        X509v3 extensions:
            X509v3 Key Usage: critical
                Certificate Sign, CRL Sign
            X509v3 Basic Constraints: critical
                CA:TRUE
            X509v3 Subject Key Identifier: 
                AF:88:2C:CC:B4:77:94:1D:95:72:AC:13:D3:28:F9:03:16:8C:96:1A
            X509v3 Authority Key Identifier: 
                keyid:AF:88:2C:CC:B4:77:94:1D:95:72:AC:13:D3:28:F9:03:16:8C:96:1A

    Signature Algorithm: sha1WithRSAEncryption
         86:35:0a:57:0a:ed:c9:38:66:cd:db:9d:2a:0c:58:b2:db:ec:
         92:33:43:e6:6d:e4:ea:7c:4a:17:c3:19:9e:98:fa:87:6c:64:
         1f:25:c0:6f:e7:ce:53:32:f6:da:02:a2:1f:64:bc:c2:de:1b:
         f8:14:de:9f:75:c1:60:ce:ea:14:f2:9d:48:7d:bc:c9:fd:95:
         19:70:6a:4c:6f:bd:14:00:dc:60:41:70:97:01:35:88:97:8d:
         be:35:06:8d:5a:68:45:c4:53:ae:3f:87:24:58:84:3a:8a:c2:
         51:b3:f4:2a:fa:14:9a:a6:f2:35:ee:f0:ad:a8:86:b5:e8:e1:
         0d:65:f8:9e:aa:a2:83:57:96:32:1f:d6:07:a4:86:c5:0e:3a:
         74:3e:42:67:9f:e8:37:39:10:a0:94:1c:e2:ca:72:09:6b:b9:
         14:fc:7e:7b:56:b6:60:50:f3:8d:5e:f6:4e:b8:15:97:fb:69:
         d5:01:7c:a7:2c:ce:d1:b2:d9:97:60:21:38:01:bb:8d:0a:5b:
         15:b8:5f:63:ba:ce:2e:53:66:5a:85:d9:17:51:54:f7:1f:d7:
         c2:05:bf:52:ab:6f:80:38:3a:51:0a:f0:b5:8c:e4:9b:97:57:
         94:b9:b7:f6:26:eb:5f:ea:41:65:53:9f:53:f8:5a:07:d2:14:
         ad:3e:71:5e
-----BEGIN CERTIFICATE-----
MIIDWjCCAkKgAwIBAgIBATANBgkqhkiG9w0BAQUFADA9MQswCQYDVQQGEwJQVDEO
MAwGA1UECgwFQ2EtRzkxDjAMBgNVBAsMBUNhLUc5MQ4wDAYDVQQDDAVDYS1HOTAg
Fw0xODEyMTIyMjUwNTlaGA8yMDMwMTIzMTIzNTk1OVowPTELMAkGA1UEBhMCUFQx
DjAMBgNVBAoMBUNhLUc5MQ4wDAYDVQQLDAVDYS1HOTEOMAwGA1UEAwwFQ2EtRzkw
ggEiMA0GCSqGSIb3DQEBAQUAA4IBDwAwggEKAoIBAQChmKvyPbdBTVtPkq9LPYzr
mJz3g9gvC+wPz21QRaBKr47xCkBZNcr9cBcP7fsIcq++WmHVZuwCEUUw0MQqEYNL
Fk/7CREF9GUI59kJfuX2e3h7LZHicldAbEApnTj4xjZSuS9Uby4qjxhAaTbTjJQ2
0kVJ6sbGb0uIeFQSr7b+UVN/2sI3GEEdJ7NZb5ipsYlk98lYmwA1KX1uqnZECDOY
xFCypeHEjYtSg+Zl1TUApeQBb1XX43WZ7xk8ZjU24W/ZaSVsVQAPZ6Xy6wShM+6n
8rPNJuQZBVfl/HhvzMfMEwKaslcqf72Zgtz+kGKUUtH7JyOicsMv1OLAkEb4FnL7
AgMBAAGjYzBhMA4GA1UdDwEB/wQEAwIBBjAPBgNVHRMBAf8EBTADAQH/MB0GA1Ud
DgQWBBSviCzMtHeUHZVyrBPTKPkDFoyWGjAfBgNVHSMEGDAWgBSviCzMtHeUHZVy
rBPTKPkDFoyWGjANBgkqhkiG9w0BAQUFAAOCAQEAhjUKVwrtyThmzdudKgxYstvs
kjND5m3k6nxKF8MZnpj6h2xkHyXAb+fOUzL22gKiH2S8wt4b+BTen3XBYM7qFPKd
SH28yf2VGXBqTG+9FADcYEFwlwE1iJeNvjUGjVpoRcRTrj+HJFiEOorCUbP0KvoU
mqbyNe7wraiGtejhDWX4nqqig1eWMh/WB6SGxQ46dD5CZ5/oNzkQoJQc4spyCWu5
FPx+e1a2YFDzjV72TrgVl/tp1QF8pyzO0bLZl2AhOAG7jQpbFbhfY7rOLlNmWoXZ
F1FU9x/XwgW/UqtvgDg6UQrwtYzkm5dXlLm39ibrX+pBZVOfU/haB9IUrT5xXg==
-----END CERTIFICATE-----
