Certificate:
    Data:
        Version: 3 (0x2)
        Serial Number: 2 (0x2)
    Signature Algorithm: sha1WithRSAEncryption
        Issuer: C=PT, O=Ca-G9, OU=Ca-G9, CN=Ca-G9
        Validity
            Not Before: Dec 13 10:41:10 2018 GMT
            Not After : Dec 31 23:59:59 2030 GMT
        Subject: C=PT, O=Ca-G9, OU=Ca-G9, CN=Client
        Subject Public Key Info:
            Public Key Algorithm: rsaEncryption
                Public-Key: (2048 bit)
                Modulus:
                    00:cb:8d:6b:cf:4f:7f:94:9c:be:3c:a2:28:55:7d:
                    ec:5e:1c:d1:87:b2:8f:7d:22:81:e7:43:d2:27:10:
                    19:b0:71:67:d3:82:7d:4b:50:6f:c5:d5:e3:a0:e6:
                    93:a2:48:3a:0e:02:f5:7b:74:8b:a0:73:ea:e1:d2:
                    2d:29:8c:2e:16:6f:86:6b:93:1c:fa:ae:7c:28:4a:
                    2c:b1:eb:45:05:33:ef:b8:f2:4d:5c:15:8d:0a:93:
                    d6:33:d9:74:5a:6a:38:6f:a4:79:0a:6c:42:05:21:
                    9d:5e:bd:b7:ec:f4:ab:2e:d0:f9:c2:2a:42:1f:59:
                    65:a9:32:65:00:68:a1:5f:f9:4e:5c:6d:7e:d2:71:
                    3d:3c:a1:94:e9:48:ee:0b:d6:2a:e9:18:6e:01:ce:
                    8b:fd:b9:55:a1:10:67:b1:4c:ba:f1:d7:0d:49:d8:
                    ce:f6:43:17:fc:7b:12:a9:6f:af:fc:46:46:d5:fa:
                    8c:03:9d:21:e9:12:ac:9c:c2:95:6d:16:6f:98:35:
                    50:f3:33:9c:73:27:84:f6:e4:fe:78:ab:07:43:38:
                    9b:6e:03:2c:fb:a0:3e:9a:5a:a4:dc:66:8b:8b:73:
                    88:22:2e:63:78:cb:1a:3d:10:f9:52:06:16:31:b8:
                    44:0f:64:54:de:40:fe:63:78:80:69:ce:fc:d4:14:
                    4c:d5
                Exponent: 65537 (0x10001)
        X509v3 extensions:
            X509v3 Key Usage: critical
                Certificate Sign, CRL Sign
            X509v3 Basic Constraints: critical
                CA:TRUE
            X509v3 Subject Key Identifier: 
                CD:DE:97:5C:61:7C:D2:79:8D:D8:35:E4:C9:BE:E0:0E:10:DA:C9:0B
            X509v3 Authority Key Identifier: 
                keyid:AF:88:2C:CC:B4:77:94:1D:95:72:AC:13:D3:28:F9:03:16:8C:96:1A

            Authority Information Access: 
                CA Issuers - URI:http://pki.blue.se/root-ca.cer

            X509v3 CRL Distribution Points: 

                Full Name:
                  URI:http://pki.blue.se/root-ca.crl

            X509v3 Certificate Policies: 
                Policy: Blue Medium Assurance
                Policy: Blue Medium Device Assurance

    Signature Algorithm: sha1WithRSAEncryption
         07:07:e8:98:a7:41:81:5a:86:d6:ee:d4:9c:2f:f2:b6:e7:50:
         b6:73:67:41:8a:cd:f8:9e:fe:d3:f4:ed:31:e7:c6:7a:ba:78:
         29:80:79:3f:b5:80:ca:51:8a:bb:d9:79:e8:d1:85:44:54:8a:
         52:36:18:02:85:a2:49:de:8a:e4:e6:a5:0e:22:ea:e5:9a:e4:
         ea:51:1a:48:25:e0:ad:2e:f1:42:b1:d8:a5:3d:80:dc:72:17:
         be:3c:fc:b7:5e:f1:38:fc:15:d1:2c:70:21:27:4d:a3:bb:8a:
         00:2f:f5:d0:65:56:1c:a4:ee:9e:9c:8b:69:1f:18:70:75:61:
         8f:ad:65:e4:9d:5c:26:04:4d:82:63:88:e4:66:32:a7:d5:e1:
         6d:6b:c5:e7:8d:3e:19:43:66:25:70:67:93:a0:c0:68:28:51:
         3a:98:56:06:ae:45:2d:0f:58:ff:62:50:48:12:0a:06:82:ec:
         dd:0a:61:08:9f:66:1a:ce:eb:0f:8f:5b:32:4f:c7:f0:26:5a:
         bb:33:b2:ca:f9:70:b0:fa:89:c5:87:38:d4:e0:2a:96:18:67:
         65:26:43:f3:d0:6e:21:e3:42:0b:7f:63:7c:ed:9f:78:81:ff:
         f9:43:3c:34:a7:2f:0c:74:aa:ad:d2:eb:a8:5b:a8:65:72:f8:
         fc:03:49:dc
-----BEGIN CERTIFICATE-----
MIID7zCCAtegAwIBAgIBAjANBgkqhkiG9w0BAQUFADA9MQswCQYDVQQGEwJQVDEO
MAwGA1UECgwFQ2EtRzkxDjAMBgNVBAsMBUNhLUc5MQ4wDAYDVQQDDAVDYS1HOTAg
Fw0xODEyMTMxMDQxMTBaGA8yMDMwMTIzMTIzNTk1OVowPjELMAkGA1UEBhMCUFQx
DjAMBgNVBAoMBUNhLUc5MQ4wDAYDVQQLDAVDYS1HOTEPMA0GA1UEAwwGQ2xpZW50
MIIBIjANBgkqhkiG9w0BAQEFAAOCAQ8AMIIBCgKCAQEAy41rz09/lJy+PKIoVX3s
XhzRh7KPfSKB50PSJxAZsHFn04J9S1BvxdXjoOaTokg6DgL1e3SLoHPq4dItKYwu
Fm+Ga5Mc+q58KEossetFBTPvuPJNXBWNCpPWM9l0Wmo4b6R5CmxCBSGdXr237PSr
LtD5wipCH1llqTJlAGihX/lOXG1+0nE9PKGU6UjuC9Yq6RhuAc6L/blVoRBnsUy6
8dcNSdjO9kMX/HsSqW+v/EZG1fqMA50h6RKsnMKVbRZvmDVQ8zOccyeE9uT+eKsH
QzibbgMs+6A+mlqk3GaLi3OIIi5jeMsaPRD5UgYWMbhED2RU3kD+Y3iAac781BRM
1QIDAQABo4H2MIHzMA4GA1UdDwEB/wQEAwIBBjAPBgNVHRMBAf8EBTADAQH/MB0G
A1UdDgQWBBTN3pdcYXzSeY3YNeTJvuAOENrJCzAfBgNVHSMEGDAWgBSviCzMtHeU
HZVyrBPTKPkDFoyWGjA6BggrBgEFBQcBAQQuMCwwKgYIKwYBBQUHMAKGHmh0dHA6
Ly9wa2kuYmx1ZS5zZS9yb290LWNhLmNlcjAvBgNVHR8EKDAmMCSgIqAghh5odHRw
Oi8vcGtpLmJsdWUuc2Uvcm9vdC1jYS5jcmwwIwYDVR0gBBwwGjALBgkrBgEEAQAB
BwgwCwYJKwYBBAEAAQcJMA0GCSqGSIb3DQEBBQUAA4IBAQAHB+iYp0GBWobW7tSc
L/K251C2c2dBis34nv7T9O0x58Z6ungpgHk/tYDKUYq72Xno0YVEVIpSNhgChaJJ
3ork5qUOIurlmuTqURpIJeCtLvFCsdilPYDcche+PPy3XvE4/BXRLHAhJ02ju4oA
L/XQZVYcpO6enItpHxhwdWGPrWXknVwmBE2CY4jkZjKn1eFta8XnjT4ZQ2YlcGeT
oMBoKFE6mFYGrkUtD1j/YlBIEgoGguzdCmEIn2YazusPj1syT8fwJlq7M7LK+XCw
+onFhzjU4CqWGGdlJkPz0G4h40ILf2N87Z94gf/5Qzw0py8MdKqt0uuoW6hlcvj8
A0nc
-----END CERTIFICATE-----
