Certificate:
    Data:
        Version: 3 (0x2)
        Serial Number: 2 (0x2)
    Signature Algorithm: sha1WithRSAEncryption
        Issuer: C=PT, O=Ca-G9, OU=Ca-G9, CN=Client
        Validity
            Not Before: Dec 13 10:51:51 2018 GMT
            Not After : Dec 12 10:51:51 2028 GMT
        Subject: C=PT, O=Ca-G9, OU=Ca-G9, CN=CLiente1
        Subject Public Key Info:
            Public Key Algorithm: rsaEncryption
                Public-Key: (2048 bit)
                Modulus:
                    00:b0:e6:d7:94:34:fc:64:a8:b0:b0:2f:65:3a:6e:
                    c6:a2:31:b0:57:c6:64:eb:c7:55:e2:e1:73:a2:34:
                    36:6b:7f:d4:ec:40:90:07:29:cf:91:9e:32:ab:eb:
                    4d:e5:88:e8:ea:ad:56:be:d4:6c:a8:84:c5:24:97:
                    7d:fd:58:41:3b:92:b6:6e:0d:8b:69:f4:b5:62:97:
                    59:b3:9c:1a:77:14:39:7e:37:8b:3f:3f:f3:17:98:
                    be:e3:14:4f:2f:90:70:b6:12:42:9b:17:3e:c6:4f:
                    2d:2a:f4:92:26:ff:2d:4d:26:1d:9d:7c:f1:93:02:
                    08:9a:94:a5:48:e1:f4:f1:4e:46:7a:ce:ad:f9:11:
                    6f:59:85:d6:aa:36:24:a3:2f:47:4d:e6:ba:4c:f7:
                    ba:19:df:7f:b7:bf:a1:99:8c:89:ef:3b:72:6d:29:
                    c9:a0:34:44:5c:b8:c8:e0:76:da:c7:f2:b5:3f:00:
                    02:03:12:2f:7d:90:bc:1f:7c:84:c7:b4:ba:eb:c5:
                    f9:b3:fe:92:2b:61:35:7e:85:d0:76:ca:2e:d9:15:
                    d5:59:ab:ce:81:ad:1b:2a:55:39:d7:f6:f2:c1:91:
                    c6:79:56:3a:4d:85:80:e3:49:a4:1e:3e:f4:8b:27:
                    c2:6f:48:40:41:d8:6c:44:0c:91:cf:46:0a:ea:4d:
                    fe:55
                Exponent: 65537 (0x10001)
        X509v3 extensions:
            X509v3 Key Usage: critical
                Certificate Sign, CRL Sign
            X509v3 Basic Constraints: critical
                CA:TRUE, pathlen:0
            X509v3 Subject Key Identifier: 
                8B:BA:E1:E6:6F:3D:7A:79:D1:70:EF:44:A2:09:EE:E6:15:C9:DD:84
            X509v3 Authority Key Identifier: 
                keyid:CD:DE:97:5C:61:7C:D2:79:8D:D8:35:E4:C9:BE:E0:0E:10:DA:C9:0B

            Authority Information Access: 
                CA Issuers - URI:http://pki.blue.se/network-ca.cer

            X509v3 CRL Distribution Points: 

                Full Name:
                  URI:http://pki.blue.se/network-ca.crl

            X509v3 Certificate Policies: 
                Policy: Blue Medium Assurance
                Policy: Blue Medium Device Assurance

    Signature Algorithm: sha1WithRSAEncryption
         74:60:f7:ef:ff:1c:ac:79:b1:47:c3:8f:12:f7:16:d4:7c:41:
         e9:7d:ad:c5:53:2e:ea:c5:bd:08:ef:bc:7d:d1:84:5f:a1:1f:
         51:d0:8f:b5:70:9b:ca:c7:a1:66:e4:47:3e:28:b6:5b:d4:2a:
         ce:b6:4a:5a:0e:70:93:fb:48:75:e2:27:bc:33:39:79:ed:38:
         c5:5d:f3:91:3e:b8:2d:73:8d:14:f9:5b:75:25:0b:61:07:81:
         7d:f4:df:ab:d1:e5:72:24:13:fd:0d:5b:d0:79:8e:ff:2a:68:
         5c:7f:96:48:56:6b:e4:30:ec:1f:b7:47:08:a7:5b:6c:9d:90:
         f1:bc:1b:3f:c3:74:d2:7b:8c:03:c5:5a:0a:9c:04:ab:b6:fd:
         b9:b9:fb:54:99:c0:eb:8b:12:7b:d4:96:26:37:bd:39:7f:aa:
         a9:ca:29:38:fe:4c:35:b1:ba:b6:17:a9:da:30:c6:a2:7c:75:
         f9:ad:bf:94:1e:b3:8b:5a:5c:6d:23:13:52:2e:f5:03:b8:d7:
         21:8e:d3:cb:2f:1d:30:73:af:55:20:60:67:df:e5:8e:fd:8f:
         9d:ca:be:a9:68:bd:f7:77:be:60:fc:d5:15:de:01:88:77:0f:
         9a:30:01:7f:9a:bc:e8:6e:17:82:20:7f:e8:5a:ef:0e:52:f1:
         4b:b8:07:4b
-----BEGIN CERTIFICATE-----
MIID+TCCAuGgAwIBAgIBAjANBgkqhkiG9w0BAQUFADA+MQswCQYDVQQGEwJQVDEO
MAwGA1UECgwFQ2EtRzkxDjAMBgNVBAsMBUNhLUc5MQ8wDQYDVQQDDAZDbGllbnQw
HhcNMTgxMjEzMTA1MTUxWhcNMjgxMjEyMTA1MTUxWjBAMQswCQYDVQQGEwJQVDEO
MAwGA1UECgwFQ2EtRzkxDjAMBgNVBAsMBUNhLUc5MREwDwYDVQQDDAhDTGllbnRl
MTCCASIwDQYJKoZIhvcNAQEBBQADggEPADCCAQoCggEBALDm15Q0/GSosLAvZTpu
xqIxsFfGZOvHVeLhc6I0Nmt/1OxAkAcpz5GeMqvrTeWI6OqtVr7UbKiExSSXff1Y
QTuStm4Ni2n0tWKXWbOcGncUOX43iz8/8xeYvuMUTy+QcLYSQpsXPsZPLSr0kib/
LU0mHZ188ZMCCJqUpUjh9PFORnrOrfkRb1mF1qo2JKMvR03mukz3uhnff7e/oZmM
ie87cm0pyaA0RFy4yOB22sfytT8AAgMSL32QvB98hMe0uuvF+bP+kithNX6F0HbK
LtkV1VmrzoGtGypVOdf28sGRxnlWOk2FgONJpB4+9Isnwm9IQEHYbEQMkc9GCupN
/lUCAwEAAaOB/zCB/DAOBgNVHQ8BAf8EBAMCAQYwEgYDVR0TAQH/BAgwBgEB/wIB
ADAdBgNVHQ4EFgQUi7rh5m89ennRcO9Eognu5hXJ3YQwHwYDVR0jBBgwFoAUzd6X
XGF80nmN2DXkyb7gDhDayQswPQYIKwYBBQUHAQEEMTAvMC0GCCsGAQUFBzAChiFo
dHRwOi8vcGtpLmJsdWUuc2UvbmV0d29yay1jYS5jZXIwMgYDVR0fBCswKTAnoCWg
I4YhaHR0cDovL3BraS5ibHVlLnNlL25ldHdvcmstY2EuY3JsMCMGA1UdIAQcMBow
CwYJKwYBBAEAAQcIMAsGCSsGAQQBAAEHCTANBgkqhkiG9w0BAQUFAAOCAQEAdGD3
7/8crHmxR8OPEvcW1HxB6X2txVMu6sW9CO+8fdGEX6EfUdCPtXCbysehZuRHPii2
W9QqzrZKWg5wk/tIdeInvDM5ee04xV3zkT64LXONFPlbdSULYQeBffTfq9HlciQT
/Q1b0HmO/ypoXH+WSFZr5DDsH7dHCKdbbJ2Q8bwbP8N00nuMA8VaCpwEq7b9ubn7
VJnA64sSe9SWJje9OX+qqcopOP5MNbG6thep2jDGonx1+a2/lB6zi1pcbSMTUi71
A7jXIY7Tyy8dMHOvVSBgZ9/ljv2Pncq+qWi993e+YPzVFd4BiHcPmjABf5q86G4X
giB/6FrvDlLxS7gHSw==
-----END CERTIFICATE-----
